target datalayout = "e-m:e-p270:32:32-p271:32:32-p272:64:64-i64:64-i128:128-f80:128-n8:16:32:64-S128"
target triple = "x86_64-pc-linux-gnu"

%struct.ZSTD_outBuffer_s = type { ptr, i64, i64 }
%struct.ZSTD_inBuffer_s = type { ptr, i64, i64 }

@ZSTD_decompressLegacyStream.x = internal global i8 0, align 1

; Function Attrs: inlinehint nounwind uwtable
define internal i64 @ZSTD_decompressLegacyStream(ptr noundef %0, i32 noundef %1, ptr noundef %2, ptr noundef %3) #4 {
  %5 = alloca i64, align 8
  %6 = alloca ptr, align 8
  %7 = alloca i32, align 4
  %8 = alloca ptr, align 8
  %9 = alloca ptr, align 8
  %10 = alloca ptr, align 8
  %11 = alloca ptr, align 8
  %12 = alloca i64, align 8
  %13 = alloca ptr, align 8
  %14 = alloca i64, align 8
  %15 = alloca i64, align 8
  %16 = alloca ptr, align 8
  %17 = alloca ptr, align 8
  %18 = alloca i64, align 8
  %19 = alloca ptr, align 8
  %20 = alloca i64, align 8
  %21 = alloca i64, align 8
  %22 = alloca ptr, align 8
  %23 = alloca ptr, align 8
  %24 = alloca i64, align 8
  %25 = alloca ptr, align 8
  %26 = alloca i64, align 8
  %27 = alloca i64, align 8
  store ptr %0, ptr %6, align 8, !tbaa !23
  store i32 %1, ptr %7, align 4, !tbaa !43
  store ptr %2, ptr %8, align 8, !tbaa !127
  store ptr %3, ptr %9, align 8, !tbaa !129
  %28 = load ptr, ptr %8, align 8, !tbaa !127
  %29 = getelementptr inbounds nuw %struct.ZSTD_outBuffer_s, ptr %28, i32 0, i32 0
  %30 = load ptr, ptr %29, align 8, !tbaa !135
  %31 = icmp eq ptr %30, null
  br i1 %31, label %32, label %35

32:                                               ; preds = %4
  %33 = load ptr, ptr %8, align 8, !tbaa !127
  %34 = getelementptr inbounds nuw %struct.ZSTD_outBuffer_s, ptr %33, i32 0, i32 0
  store ptr @ZSTD_decompressLegacyStream.x, ptr %34, align 8, !tbaa !135
  br label %35

35:                                               ; preds = %32, %4
  %36 = load ptr, ptr %9, align 8, !tbaa !129
  %37 = getelementptr inbounds nuw %struct.ZSTD_inBuffer_s, ptr %36, i32 0, i32 0
  %38 = load ptr, ptr %37, align 8, !tbaa !131
  %39 = icmp eq ptr %38, null
  br i1 %39, label %40, label %43

40:                                               ; preds = %35
  %41 = load ptr, ptr %9, align 8, !tbaa !129
  %42 = getelementptr inbounds nuw %struct.ZSTD_inBuffer_s, ptr %41, i32 0, i32 0
  store ptr @ZSTD_decompressLegacyStream.x, ptr %42, align 8, !tbaa !131
  br label %43

43:                                               ; preds = %40, %35
  br label %44

44:                                               ; preds = %43
  br label %45

45:                                               ; preds = %44
  %46 = load i32, ptr %7, align 4, !tbaa !43
  switch i32 %46, label %47 [
    i32 1, label %48
    i32 2, label %48
    i32 3, label %48
    i32 5, label %49
    i32 6, label %94
    i32 7, label %139
  ]

47:                                               ; preds = %45
  br label %48

48:                                               ; preds = %45, %45, %45, %47
  store i64 -12, ptr %5, align 8
  br label %184

49:                                               ; preds = %45
  call void @llvm.lifetime.start.p0(i64 8, ptr %10) #11
  %50 = load ptr, ptr %6, align 8, !tbaa !23
  store ptr %50, ptr %10, align 8, !tbaa !149
  call void @llvm.lifetime.start.p0(i64 8, ptr %11) #11
  %51 = load ptr, ptr %9, align 8, !tbaa !129
  %52 = getelementptr inbounds nuw %struct.ZSTD_inBuffer_s, ptr %51, i32 0, i32 0
  %53 = load ptr, ptr %52, align 8, !tbaa !131
  %54 = load ptr, ptr %9, align 8, !tbaa !129
  %55 = getelementptr inbounds nuw %struct.ZSTD_inBuffer_s, ptr %54, i32 0, i32 2
  %56 = load i64, ptr %55, align 8, !tbaa !133
  %57 = getelementptr inbounds nuw i8, ptr %53, i64 %56
  store ptr %57, ptr %11, align 8, !tbaa !23
  call void @llvm.lifetime.start.p0(i64 8, ptr %12) #11
  %58 = load ptr, ptr %9, align 8, !tbaa !129
  %59 = getelementptr inbounds nuw %struct.ZSTD_inBuffer_s, ptr %58, i32 0, i32 1
  %60 = load i64, ptr %59, align 8, !tbaa !134
  %61 = load ptr, ptr %9, align 8, !tbaa !129
  %62 = getelementptr inbounds nuw %struct.ZSTD_inBuffer_s, ptr %61, i32 0, i32 2
  %63 = load i64, ptr %62, align 8, !tbaa !133
  %64 = sub i64 %60, %63
  store i64 %64, ptr %12, align 8, !tbaa !24
  call void @llvm.lifetime.start.p0(i64 8, ptr %13) #11
  %65 = load ptr, ptr %8, align 8, !tbaa !127
  %66 = getelementptr inbounds nuw %struct.ZSTD_outBuffer_s, ptr %65, i32 0, i32 0
  %67 = load ptr, ptr %66, align 8, !tbaa !135
  %68 = load ptr, ptr %8, align 8, !tbaa !127
  %69 = getelementptr inbounds nuw %struct.ZSTD_outBuffer_s, ptr %68, i32 0, i32 2
  %70 = load i64, ptr %69, align 8, !tbaa !136
  %71 = getelementptr inbounds nuw i8, ptr %67, i64 %70
  store ptr %71, ptr %13, align 8, !tbaa !23
  call void @llvm.lifetime.start.p0(i64 8, ptr %14) #11
  %72 = load ptr, ptr %8, align 8, !tbaa !127
  %73 = getelementptr inbounds nuw %struct.ZSTD_outBuffer_s, ptr %72, i32 0, i32 1
  %74 = load i64, ptr %73, align 8, !tbaa !137
  %75 = load ptr, ptr %8, align 8, !tbaa !127
  %76 = getelementptr inbounds nuw %struct.ZSTD_outBuffer_s, ptr %75, i32 0, i32 2
  %77 = load i64, ptr %76, align 8, !tbaa !136
  %78 = sub i64 %74, %77
  store i64 %78, ptr %14, align 8, !tbaa !24
  call void @llvm.lifetime.start.p0(i64 8, ptr %15) #11
  %79 = load ptr, ptr %10, align 8, !tbaa !149
  %80 = load ptr, ptr %13, align 8, !tbaa !23
  %81 = load ptr, ptr %11, align 8, !tbaa !23
  %82 = call i64 @ZBUFFv05_decompressContinue(ptr noundef %79, ptr noundef %80, ptr noundef %14, ptr noundef %81, ptr noundef %12)
  store i64 %82, ptr %15, align 8, !tbaa !24
  %83 = load i64, ptr %14, align 8, !tbaa !24
  %84 = load ptr, ptr %8, align 8, !tbaa !127
  %85 = getelementptr inbounds nuw %struct.ZSTD_outBuffer_s, ptr %84, i32 0, i32 2
  %86 = load i64, ptr %85, align 8, !tbaa !136
  %87 = add i64 %86, %83
  store i64 %87, ptr %85, align 8, !tbaa !136
  %88 = load i64, ptr %12, align 8, !tbaa !24
  %89 = load ptr, ptr %9, align 8, !tbaa !129
  %90 = getelementptr inbounds nuw %struct.ZSTD_inBuffer_s, ptr %89, i32 0, i32 2
  %91 = load i64, ptr %90, align 8, !tbaa !133
  %92 = add i64 %91, %88
  store i64 %92, ptr %90, align 8, !tbaa !133
  %93 = load i64, ptr %15, align 8, !tbaa !24
  store i64 %93, ptr %5, align 8
  call void @llvm.lifetime.end.p0(i64 8, ptr %15) #11
  call void @llvm.lifetime.end.p0(i64 8, ptr %14) #11
  call void @llvm.lifetime.end.p0(i64 8, ptr %13) #11
  call void @llvm.lifetime.end.p0(i64 8, ptr %12) #11
  call void @llvm.lifetime.end.p0(i64 8, ptr %11) #11
  call void @llvm.lifetime.end.p0(i64 8, ptr %10) #11
  br label %184

94:                                               ; preds = %45
  call void @llvm.lifetime.start.p0(i64 8, ptr %16) #11
  %95 = load ptr, ptr %6, align 8, !tbaa !23
  store ptr %95, ptr %16, align 8, !tbaa !151
  call void @llvm.lifetime.start.p0(i64 8, ptr %17) #11
  %96 = load ptr, ptr %9, align 8, !tbaa !129
  %97 = getelementptr inbounds nuw %struct.ZSTD_inBuffer_s, ptr %96, i32 0, i32 0
  %98 = load ptr, ptr %97, align 8, !tbaa !131
  %99 = load ptr, ptr %9, align 8, !tbaa !129
  %100 = getelementptr inbounds nuw %struct.ZSTD_inBuffer_s, ptr %99, i32 0, i32 2
  %101 = load i64, ptr %100, align 8, !tbaa !133
  %102 = getelementptr inbounds nuw i8, ptr %98, i64 %101
  store ptr %102, ptr %17, align 8, !tbaa !23
  call void @llvm.lifetime.start.p0(i64 8, ptr %18) #11
  %103 = load ptr, ptr %9, align 8, !tbaa !129
  %104 = getelementptr inbounds nuw %struct.ZSTD_inBuffer_s, ptr %103, i32 0, i32 1
  %105 = load i64, ptr %104, align 8, !tbaa !134
  %106 = load ptr, ptr %9, align 8, !tbaa !129
  %107 = getelementptr inbounds nuw %struct.ZSTD_inBuffer_s, ptr %106, i32 0, i32 2
  %108 = load i64, ptr %107, align 8, !tbaa !133
  %109 = sub i64 %105, %108
  store i64 %109, ptr %18, align 8, !tbaa !24
  call void @llvm.lifetime.start.p0(i64 8, ptr %19) #11
  %110 = load ptr, ptr %8, align 8, !tbaa !127
  %111 = getelementptr inbounds nuw %struct.ZSTD_outBuffer_s, ptr %110, i32 0, i32 0
  %112 = load ptr, ptr %111, align 8, !tbaa !135
  %113 = load ptr, ptr %8, align 8, !tbaa !127
  %114 = getelementptr inbounds nuw %struct.ZSTD_outBuffer_s, ptr %113, i32 0, i32 2
  %115 = load i64, ptr %114, align 8, !tbaa !136
  %116 = getelementptr inbounds nuw i8, ptr %112, i64 %115
  store ptr %116, ptr %19, align 8, !tbaa !23
  call void @llvm.lifetime.start.p0(i64 8, ptr %20) #11
  %117 = load ptr, ptr %8, align 8, !tbaa !127
  %118 = getelementptr inbounds nuw %struct.ZSTD_outBuffer_s, ptr %117, i32 0, i32 1
  %119 = load i64, ptr %118, align 8, !tbaa !137
  %120 = load ptr, ptr %8, align 8, !tbaa !127
  %121 = getelementptr inbounds nuw %struct.ZSTD_outBuffer_s, ptr %120, i32 0, i32 2
  %122 = load i64, ptr %121, align 8, !tbaa !136
  %123 = sub i64 %119, %122
  store i64 %123, ptr %20, align 8, !tbaa !24
  call void @llvm.lifetime.start.p0(i64 8, ptr %21) #11
  %124 = load ptr, ptr %16, align 8, !tbaa !151
  %125 = load ptr, ptr %19, align 8, !tbaa !23
  %126 = load ptr, ptr %17, align 8, !tbaa !23
  %127 = call i64 @ZBUFFv06_decompressContinue(ptr noundef %124, ptr noundef %125, ptr noundef %20, ptr noundef %126, ptr noundef %18)
  store i64 %127, ptr %21, align 8, !tbaa !24
  %128 = load i64, ptr %20, align 8, !tbaa !24
  %129 = load ptr, ptr %8, align 8, !tbaa !127
  %130 = getelementptr inbounds nuw %struct.ZSTD_outBuffer_s, ptr %129, i32 0, i32 2
  %131 = load i64, ptr %130, align 8, !tbaa !136
  %132 = add i64 %131, %128
  store i64 %132, ptr %130, align 8, !tbaa !136
  %133 = load i64, ptr %18, align 8, !tbaa !24
  %134 = load ptr, ptr %9, align 8, !tbaa !129
  %135 = getelementptr inbounds nuw %struct.ZSTD_inBuffer_s, ptr %134, i32 0, i32 2
  %136 = load i64, ptr %135, align 8, !tbaa !133
  %137 = add i64 %136, %133
  store i64 %137, ptr %135, align 8, !tbaa !133
  %138 = load i64, ptr %21, align 8, !tbaa !24
  store i64 %138, ptr %5, align 8
  call void @llvm.lifetime.end.p0(i64 8, ptr %21) #11
  call void @llvm.lifetime.end.p0(i64 8, ptr %20) #11
  call void @llvm.lifetime.end.p0(i64 8, ptr %19) #11
  call void @llvm.lifetime.end.p0(i64 8, ptr %18) #11
  call void @llvm.lifetime.end.p0(i64 8, ptr %17) #11
  call void @llvm.lifetime.end.p0(i64 8, ptr %16) #11
  br label %184

139:                                              ; preds = %45
  call void @llvm.lifetime.start.p0(i64 8, ptr %22) #11
  %140 = load ptr, ptr %6, align 8, !tbaa !23
  store ptr %140, ptr %22, align 8, !tbaa !153
  call void @llvm.lifetime.start.p0(i64 8, ptr %23) #11
  %141 = load ptr, ptr %9, align 8, !tbaa !129
  %142 = getelementptr inbounds nuw %struct.ZSTD_inBuffer_s, ptr %141, i32 0, i32 0
  %143 = load ptr, ptr %142, align 8, !tbaa !131
  %144 = load ptr, ptr %9, align 8, !tbaa !129
  %145 = getelementptr inbounds nuw %struct.ZSTD_inBuffer_s, ptr %144, i32 0, i32 2
  %146 = load i64, ptr %145, align 8, !tbaa !133
  %147 = getelementptr inbounds nuw i8, ptr %143, i64 %146
  store ptr %147, ptr %23, align 8, !tbaa !23
  call void @llvm.lifetime.start.p0(i64 8, ptr %24) #11
  %148 = load ptr, ptr %9, align 8, !tbaa !129
  %149 = getelementptr inbounds nuw %struct.ZSTD_inBuffer_s, ptr %148, i32 0, i32 1
  %150 = load i64, ptr %149, align 8, !tbaa !134
  %151 = load ptr, ptr %9, align 8, !tbaa !129
  %152 = getelementptr inbounds nuw %struct.ZSTD_inBuffer_s, ptr %151, i32 0, i32 2
  %153 = load i64, ptr %152, align 8, !tbaa !133
  %154 = sub i64 %150, %153
  store i64 %154, ptr %24, align 8, !tbaa !24
  call void @llvm.lifetime.start.p0(i64 8, ptr %25) #11
  %155 = load ptr, ptr %8, align 8, !tbaa !127
  %156 = getelementptr inbounds nuw %struct.ZSTD_outBuffer_s, ptr %155, i32 0, i32 0
  %157 = load ptr, ptr %156, align 8, !tbaa !135
  %158 = load ptr, ptr %8, align 8, !tbaa !127
  %159 = getelementptr inbounds nuw %struct.ZSTD_outBuffer_s, ptr %158, i32 0, i32 2
  %160 = load i64, ptr %159, align 8, !tbaa !136
  %161 = getelementptr inbounds nuw i8, ptr %157, i64 %160
  store ptr %161, ptr %25, align 8, !tbaa !23
  call void @llvm.lifetime.start.p0(i64 8, ptr %26) #11
  %162 = load ptr, ptr %8, align 8, !tbaa !127
  %163 = getelementptr inbounds nuw %struct.ZSTD_outBuffer_s, ptr %162, i32 0, i32 1
  %164 = load i64, ptr %163, align 8, !tbaa !137
  %165 = load ptr, ptr %8, align 8, !tbaa !127
  %166 = getelementptr inbounds nuw %struct.ZSTD_outBuffer_s, ptr %165, i32 0, i32 2
  %167 = load i64, ptr %166, align 8, !tbaa !136
  %168 = sub i64 %164, %167
  store i64 %168, ptr %26, align 8, !tbaa !24
  call void @llvm.lifetime.start.p0(i64 8, ptr %27) #11
  %169 = load ptr, ptr %22, align 8, !tbaa !153
  %170 = load ptr, ptr %25, align 8, !tbaa !23
  %171 = load ptr, ptr %23, align 8, !tbaa !23
  %172 = call i64 @ZBUFFv07_decompressContinue(ptr noundef %169, ptr noundef %170, ptr noundef %26, ptr noundef %171, ptr noundef %24)
  store i64 %172, ptr %27, align 8, !tbaa !24
  %173 = load i64, ptr %26, align 8, !tbaa !24
  %174 = load ptr, ptr %8, align 8, !tbaa !127
  %175 = getelementptr inbounds nuw %struct.ZSTD_outBuffer_s, ptr %174, i32 0, i32 2
  %176 = load i64, ptr %175, align 8, !tbaa !136
  %177 = add i64 %176, %173
  store i64 %177, ptr %175, align 8, !tbaa !136
  %178 = load i64, ptr %24, align 8, !tbaa !24
  %179 = load ptr, ptr %9, align 8, !tbaa !129
  %180 = getelementptr inbounds nuw %struct.ZSTD_inBuffer_s, ptr %179, i32 0, i32 2
  %181 = load i64, ptr %180, align 8, !tbaa !133
  %182 = add i64 %181, %178
  store i64 %182, ptr %180, align 8, !tbaa !133
  %183 = load i64, ptr %27, align 8, !tbaa !24
  store i64 %183, ptr %5, align 8
  call void @llvm.lifetime.end.p0(i64 8, ptr %27) #11
  call void @llvm.lifetime.end.p0(i64 8, ptr %26) #11
  call void @llvm.lifetime.end.p0(i64 8, ptr %25) #11
  call void @llvm.lifetime.end.p0(i64 8, ptr %24) #11
  call void @llvm.lifetime.end.p0(i64 8, ptr %23) #11
  call void @llvm.lifetime.end.p0(i64 8, ptr %22) #11
  br label %184

184:                                              ; preds = %139, %94, %49, %48
  %185 = load i64, ptr %5, align 8
  ret i64 %185
}