; Function Attrs: inlinehint nounwind uwtable
define internal fastcc i64 @ZSTD_decompressLegacyStream(ptr noundef %0, i32 noundef range(i32 1, 0) %1, ptr noundef captures(none) %2, ptr noundef captures(none) %3) unnamed_addr #11 {
  %5 = alloca i64, align 8
  %6 = alloca i64, align 8
  %7 = alloca i64, align 8
  %8 = alloca i64, align 8
  %9 = alloca i64, align 8
  %10 = alloca i64, align 8
  %11 = load ptr, ptr %2, align 8, !tbaa !135
  %12 = icmp eq ptr %11, null
  br i1 %12, label %13, label %14

13:                                               ; preds = %4
  store ptr @ZSTD_decompressLegacyStream.x, ptr %2, align 8, !tbaa !135
  br label %14

14:                                               ; preds = %13, %4
  %15 = phi ptr [ @ZSTD_decompressLegacyStream.x, %13 ], [ %11, %4 ]
  %16 = load ptr, ptr %3, align 8, !tbaa !131
  %17 = icmp eq ptr %16, null
  br i1 %17, label %18, label %19

18:                                               ; preds = %14
  store ptr @ZSTD_decompressLegacyStream.x, ptr %3, align 8, !tbaa !131
  br label %19

19:                                               ; preds = %18, %14
  %20 = phi ptr [ @ZSTD_decompressLegacyStream.x, %18 ], [ %16, %14 ]
  switch i32 %1, label %81 [
    i32 7, label %61
    i32 6, label %41
    i32 5, label %21
  ]

21:                                               ; preds = %19
  %22 = getelementptr inbounds nuw i8, ptr %3, i64 16
  %23 = load i64, ptr %22, align 8, !tbaa !133
  %24 = getelementptr inbounds nuw i8, ptr %20, i64 %23
  call void @llvm.lifetime.start.p0(i64 8, ptr nonnull %5) #17
  %25 = getelementptr inbounds nuw i8, ptr %3, i64 8
  %26 = load i64, ptr %25, align 8, !tbaa !134
  %27 = sub i64 %26, %23
  store i64 %27, ptr %5, align 8, !tbaa !49
  %28 = getelementptr inbounds nuw i8, ptr %2, i64 16
  %29 = load i64, ptr %28, align 8, !tbaa !136
  %30 = getelementptr inbounds nuw i8, ptr %15, i64 %29
  call void @llvm.lifetime.start.p0(i64 8, ptr nonnull %6) #17
  %31 = getelementptr inbounds nuw i8, ptr %2, i64 8
  %32 = load i64, ptr %31, align 8, !tbaa !137
  %33 = sub i64 %32, %29
  store i64 %33, ptr %6, align 8, !tbaa !49
  %34 = call i64 @ZBUFFv05_decompressContinue(ptr noundef %0, ptr noundef nonnull %30, ptr noundef nonnull %6, ptr noundef nonnull %24, ptr noundef nonnull %5) #17
  %35 = load i64, ptr %6, align 8, !tbaa !49
  %36 = load i64, ptr %28, align 8, !tbaa !136
  %37 = add i64 %36, %35
  store i64 %37, ptr %28, align 8, !tbaa !136
  %38 = load i64, ptr %5, align 8, !tbaa !49
  %39 = load i64, ptr %22, align 8, !tbaa !133
  %40 = add i64 %39, %38
  store i64 %40, ptr %22, align 8, !tbaa !133
  call void @llvm.lifetime.end.p0(i64 8, ptr nonnull %6) #17
  call void @llvm.lifetime.end.p0(i64 8, ptr nonnull %5) #17
  br label %81

41:                                               ; preds = %19
  %42 = getelementptr inbounds nuw i8, ptr %3, i64 16
  %43 = load i64, ptr %42, align 8, !tbaa !133
  %44 = getelementptr inbounds nuw i8, ptr %20, i64 %43
  call void @llvm.lifetime.start.p0(i64 8, ptr nonnull %7) #17
  %45 = getelementptr inbounds nuw i8, ptr %3, i64 8
  %46 = load i64, ptr %45, align 8, !tbaa !134
  %47 = sub i64 %46, %43
  store i64 %47, ptr %7, align 8, !tbaa !49
  %48 = getelementptr inbounds nuw i8, ptr %2, i64 16
  %49 = load i64, ptr %48, align 8, !tbaa !136
  %50 = getelementptr inbounds nuw i8, ptr %15, i64 %49
  call void @llvm.lifetime.start.p0(i64 8, ptr nonnull %8) #17
  %51 = getelementptr inbounds nuw i8, ptr %2, i64 8
  %52 = load i64, ptr %51, align 8, !tbaa !137
  %53 = sub i64 %52, %49
  store i64 %53, ptr %8, align 8, !tbaa !49
  %54 = call i64 @ZBUFFv06_decompressContinue(ptr noundef %0, ptr noundef nonnull %50, ptr noundef nonnull %8, ptr noundef nonnull %44, ptr noundef nonnull %7) #17
  %55 = load i64, ptr %8, align 8, !tbaa !49
  %56 = load i64, ptr %48, align 8, !tbaa !136
  %57 = add i64 %56, %55
  store i64 %57, ptr %48, align 8, !tbaa !136
  %58 = load i64, ptr %7, align 8, !tbaa !49
  %59 = load i64, ptr %42, align 8, !tbaa !133
  %60 = add i64 %59, %58
  store i64 %60, ptr %42, align 8, !tbaa !133
  call void @llvm.lifetime.end.p0(i64 8, ptr nonnull %8) #17
  call void @llvm.lifetime.end.p0(i64 8, ptr nonnull %7) #17
  br label %81

61:                                               ; preds = %19
  %62 = getelementptr inbounds nuw i8, ptr %3, i64 16
  %63 = load i64, ptr %62, align 8, !tbaa !133
  %64 = getelementptr inbounds nuw i8, ptr %20, i64 %63
  call void @llvm.lifetime.start.p0(i64 8, ptr nonnull %9) #17
  %65 = getelementptr inbounds nuw i8, ptr %3, i64 8
  %66 = load i64, ptr %65, align 8, !tbaa !134
  %67 = sub i64 %66, %63
  store i64 %67, ptr %9, align 8, !tbaa !49
  %68 = getelementptr inbounds nuw i8, ptr %2, i64 16
  %69 = load i64, ptr %68, align 8, !tbaa !136
  %70 = getelementptr inbounds nuw i8, ptr %15, i64 %69
  call void @llvm.lifetime.start.p0(i64 8, ptr nonnull %10) #17
  %71 = getelementptr inbounds nuw i8, ptr %2, i64 8
  %72 = load i64, ptr %71, align 8, !tbaa !137
  %73 = sub i64 %72, %69
  store i64 %73, ptr %10, align 8, !tbaa !49
  %74 = call i64 @ZBUFFv07_decompressContinue(ptr noundef %0, ptr noundef nonnull %70, ptr noundef nonnull %10, ptr noundef nonnull %64, ptr noundef nonnull %9) #17
  %75 = load i64, ptr %10, align 8, !tbaa !49
  %76 = load i64, ptr %68, align 8, !tbaa !136
  %77 = add i64 %76, %75
  store i64 %77, ptr %68, align 8, !tbaa !136
  %78 = load i64, ptr %9, align 8, !tbaa !49
  %79 = load i64, ptr %62, align 8, !tbaa !133
  %80 = add i64 %79, %78
  store i64 %80, ptr %62, align 8, !tbaa !133
  call void @llvm.lifetime.end.p0(i64 8, ptr nonnull %10) #17
  call void @llvm.lifetime.end.p0(i64 8, ptr nonnull %9) #17
  br label %81

81:                                               ; preds = %19, %61, %41, %21
  %.0 = phi i64 [ %34, %21 ], [ %54, %41 ], [ %74, %61 ], [ -12, %19 ]
  ret i64 %.0
}